; Function Attrs: nounwind uwtable
define range(i32 -1, 1) i32 @H5HF__tiny_remove(ptr noundef %0, ptr nocapture noundef readonly %1) local_unnamed_addr #1 {
  %3 = getelementptr inbounds i8, ptr %0, i64 696
  %4 = load i8, ptr %3, align 8
  %5 = trunc i8 %4 to i1
  br i1 %5, label %9, label %6

6:                                                ; preds = %2
  %7 = load i8, ptr %1, align 1
  %8 = and i8 %7, 15
  br label %H5HF__tiny_get_obj_len.exit

9:                                                ; preds = %2
  %10 = getelementptr inbounds i8, ptr %1, i64 1
  %11 = load i8, ptr %10, align 1
  br label %H5HF__tiny_get_obj_len.exit

H5HF__tiny_get_obj_len.exit:                      ; preds = %6, %9
  %.0.in.i = phi i8 [ %11, %9 ], [ %8, %6 ]
  %.0.i = zext i8 %.0.in.i to i64
  %.neg = xor i64 %.0.i, -1
  %12 = getelementptr inbounds i8, ptr %0, i64 552
  %13 = load <2 x i64>, ptr %12, align 8
  %14 = insertelement <2 x i64> <i64 poison, i64 -1>, i64 %.neg, i64 0
  %15 = add <2 x i64> %13, %14
  store <2 x i64> %15, ptr %12, align 8
  %16 = tail call i32 @H5HF__hdr_dirty(ptr noundef nonnull %0) #5
  %17 = icmp slt i32 %16, 0
  br i1 %17, label %18, label %22

18:                                               ; preds = %H5HF__tiny_get_obj_len.exit
  %19 = load i64, ptr @H5E_HEAP_g, align 8
  %20 = load i64, ptr @H5E_CANTDIRTY_g, align 8
  %21 = tail call i32 (ptr, ptr, i32, i64, i64, ptr, ...) @H5E_printf_stack(ptr noundef nonnull @.str, ptr noundef nonnull @__func__.H5HF__tiny_remove, i32 noundef 349, i64 noundef %19, i64 noundef %20, ptr noundef nonnull @.str.1) #5
  br label %22

22:                                               ; preds = %H5HF__tiny_get_obj_len.exit, %18
  %.0 = phi i32 [ -1, %18 ], [ 0, %H5HF__tiny_get_obj_len.exit ]
  ret i32 %.0
}